target datalayout = "e-m:e-p270:32:32-p271:32:32-p272:64:64-i64:64-i128:128-f80:128-n8:16:32:64-S128"
target triple = "x86_64-pc-linux-gnu"

%struct.nk_allocator = type { %union.nk_handle, ptr, ptr }
%union.nk_handle = type { ptr }
%struct.nk_buffer = type { [2 x %struct.nk_buffer_marker], %struct.nk_allocator, i32, %struct.nk_memory, float, i64, i64, i64, i64 }
%struct.nk_buffer_marker = type { i32, i64 }
%struct.nk_memory = type { ptr, i64 }
%struct.nk_str = type { %struct.nk_buffer, i32 }

; Function Attrs: nounwind uwtable
define i32 @nk_str_len_char(ptr noundef %0) #0 {
  %2 = alloca i32, align 4
  %3 = alloca ptr, align 8
  store ptr %0, ptr %3, align 8, !tbaa !107
  %4 = load ptr, ptr %3, align 8, !tbaa !107
  %5 = icmp ne ptr %4, null
  br i1 %5, label %6, label %17

6:                                                ; preds = %1
  %7 = load ptr, ptr %3, align 8, !tbaa !107
  %8 = getelementptr inbounds nuw %struct.nk_str, ptr %7, i32 0, i32 1
  %9 = load i32, ptr %8, align 8, !tbaa !109
  %10 = icmp ne i32 %9, 0
  br i1 %10, label %11, label %17

11:                                               ; preds = %6
  %12 = load ptr, ptr %3, align 8, !tbaa !107
  %13 = getelementptr inbounds nuw %struct.nk_str, ptr %12, i32 0, i32 0
  %14 = getelementptr inbounds nuw %struct.nk_buffer, ptr %13, i32 0, i32 5
  %15 = load i64, ptr %14, align 8, !tbaa !115
  %16 = icmp ne i64 %15, 0
  br i1 %16, label %18, label %17

17:                                               ; preds = %11, %6, %1
  store i32 0, ptr %2, align 4
  br label %24

18:                                               ; preds = %11
  %19 = load ptr, ptr %3, align 8, !tbaa !107
  %20 = getelementptr inbounds nuw %struct.nk_str, ptr %19, i32 0, i32 0
  %21 = getelementptr inbounds nuw %struct.nk_buffer, ptr %20, i32 0, i32 5
  %22 = load i64, ptr %21, align 8, !tbaa !115
  %23 = trunc i64 %22 to i32
  store i32 %23, ptr %2, align 4
  br label %24

24:                                               ; preds = %18, %17
  %25 = load i32, ptr %2, align 4
  ret i32 %25
}