; Function Attrs: mustprogress nofree norecurse nosync nounwind willreturn memory(argmem: read) uwtable
define i32 @nk_str_len_char(ptr noundef readonly captures(address_is_null) %0) local_unnamed_addr #12 {
  %.not = icmp eq ptr %0, null
  br i1 %.not, label %9, label %2

2:                                                ; preds = %1
  %3 = getelementptr inbounds nuw i8, ptr %0, i64 120
  %4 = load i32, ptr %3, align 8, !tbaa !69
  %.not6 = icmp eq i32 %4, 0
  br i1 %.not6, label %9, label %5

5:                                                ; preds = %2
  %6 = getelementptr inbounds nuw i8, ptr %0, i64 88
  %7 = load i64, ptr %6, align 8, !tbaa !75
  %8 = trunc i64 %7 to i32
  br label %9

9:                                                ; preds = %5, %1, %2
  %.0 = phi i32 [ 0, %2 ], [ 0, %1 ], [ %8, %5 ]
  ret i32 %.0
}